; Function Attrs: nounwind uwtable
define internal ptr @Gzip_get_error(ptr noundef readonly captures(none) %0) #0 {
  %2 = alloca i32, align 4
  %3 = getelementptr inbounds nuw i8, ptr %0, i64 104
  %4 = load ptr, ptr %3, align 8
  call void @llvm.lifetime.start.p0(i64 4, ptr nonnull %2) #11
  %5 = call ptr @gzerror(ptr noundef %4, ptr noundef nonnull %2) #11
  %6 = load i32, ptr %2, align 4
  %7 = icmp eq i32 %6, -1
  br i1 %7, label %8, label %12

8:                                                ; preds = %1
  %9 = tail call ptr @__errno_location() #13
  %10 = load i32, ptr %9, align 4
  %11 = call ptr @pg_strerror(i32 noundef %10) #11
  br label %12

12:                                               ; preds = %8, %1
  %.0 = phi ptr [ %11, %8 ], [ %5, %1 ]
  call void @llvm.lifetime.end.p0(i64 4, ptr nonnull %2) #11
  ret ptr %.0
}